target datalayout = "e-m:e-p270:32:32-p271:32:32-p272:64:64-i64:64-i128:128-f80:128-n8:16:32:64-S128"
target triple = "x86_64-pc-linux-gnu"

%struct.pmix_object_t = type { %union.pthread_mutex_t, ptr, i32, %struct.pmix_tma }
%union.pthread_mutex_t = type { %struct.__pthread_mutex_s }
%struct.__pthread_mutex_s = type { i32, i32, i32, i32, i32, i16, i16, %struct.__pthread_internal_list }
%struct.__pthread_internal_list = type { ptr, ptr }
%struct.pmix_tma = type { ptr, ptr, ptr, ptr, ptr, ptr, ptr, ptr }
%struct.pmix_psquash_base_module_t = type { ptr, i8, ptr, ptr, ptr, ptr, ptr }
%struct.pmix_mca_base_framework_t = type { ptr, ptr, ptr, ptr, ptr, ptr, i32, i32, ptr, ptr, i32, i32, %struct.pmix_list_t, %struct.pmix_list_t }
%struct.pmix_list_t = type { %struct.pmix_object_t, %struct.pmix_list_item_t, i64 }
%struct.pmix_list_item_t = type { %struct.pmix_object_t, ptr, ptr, i32 }
%struct.pmix_output_desc_t = type { i8, i8, i32, i8, i32, ptr, ptr, i32, ptr, i32, i8, i8, i8, i8, ptr, i32, i32 }
%struct.pmix_buffer_t = type { %struct.pmix_object_t, i8, ptr, ptr, ptr, i64, i64 }

@pmix_psquash = external global %struct.pmix_psquash_base_module_t, align 8
@.str.58 = private unnamed_addr constant [37 x i8] c"PMIX ERROR: %s in file %s at line %d\00", align 1
@.str.59 = private unnamed_addr constant [14 x i8] c"bfrop_pmix4.c\00", align 1
@pmix_bfrops_base_framework = external global %struct.pmix_mca_base_framework_t, align 8
@pmix_output_info = external global [0 x %struct.pmix_output_desc_t], align 8
@.str.61 = private unnamed_addr constant [38 x i8] c"pmix_bfrops_base_unpack_integer * %d\0A\00", align 1

; Function Attrs: nounwind uwtable
define internal i32 @pmix4_bfrops_base_unpack_general_int(ptr noundef %0, ptr noundef %1, ptr noundef %2, ptr noundef %3, i16 noundef zeroext %4) #0 {
  %6 = alloca i32, align 4
  %7 = alloca ptr, align 8
  %8 = alloca ptr, align 8
  %9 = alloca ptr, align 8
  %10 = alloca ptr, align 8
  %11 = alloca i16, align 2
  %12 = alloca i32, align 4
  %13 = alloca i64, align 8
  %14 = alloca i64, align 8
  %15 = alloca i64, align 8
  %16 = alloca i64, align 8
  %17 = alloca i32, align 4
  %18 = alloca i32, align 4
  store ptr %0, ptr %7, align 8, !tbaa !53
  store ptr %1, ptr %8, align 8, !tbaa !3
  store ptr %2, ptr %9, align 8, !tbaa !3
  store ptr %3, ptr %10, align 8, !tbaa !32
  store i16 %4, ptr %11, align 2, !tbaa !31
  call void @llvm.lifetime.start.p0(i64 4, ptr %12) #12
  call void @llvm.lifetime.start.p0(i64 8, ptr %13) #12
  call void @llvm.lifetime.start.p0(i64 8, ptr %14) #12
  call void @llvm.lifetime.start.p0(i64 8, ptr %15) #12
  call void @llvm.lifetime.start.p0(i64 8, ptr %16) #12
  call void @llvm.lifetime.start.p0(i64 4, ptr %17) #12
  %19 = load i32, ptr getelementptr inbounds nuw (%struct.pmix_mca_base_framework_t, ptr @pmix_bfrops_base_framework, i32 0, i32 11), align 4, !tbaa !81
  %20 = icmp sge i32 %19, 0
  br i1 %20, label %21, label %35

21:                                               ; preds = %5
  %22 = load i32, ptr getelementptr inbounds nuw (%struct.pmix_mca_base_framework_t, ptr @pmix_bfrops_base_framework, i32 0, i32 11), align 4, !tbaa !81
  %23 = icmp slt i32 %22, 64
  br i1 %23, label %24, label %35

24:                                               ; preds = %21
  %25 = load i32, ptr getelementptr inbounds nuw (%struct.pmix_mca_base_framework_t, ptr @pmix_bfrops_base_framework, i32 0, i32 11), align 4, !tbaa !81
  %26 = sext i32 %25 to i64
  %27 = getelementptr inbounds [0 x %struct.pmix_output_desc_t], ptr @pmix_output_info, i64 0, i64 %26
  %28 = getelementptr inbounds nuw %struct.pmix_output_desc_t, ptr %27, i32 0, i32 2
  %29 = load i32, ptr %28, align 4, !tbaa !87
  %30 = icmp sge i32 %29, 20
  br i1 %30, label %31, label %35

31:                                               ; preds = %24
  %32 = load i32, ptr getelementptr inbounds nuw (%struct.pmix_mca_base_framework_t, ptr @pmix_bfrops_base_framework, i32 0, i32 11), align 4, !tbaa !81
  %33 = load ptr, ptr %10, align 8, !tbaa !32
  %34 = load i32, ptr %33, align 4, !tbaa !20
  call void (i32, ptr, ...) @pmix_output(i32 noundef %32, ptr noundef @.str.61, i32 noundef %34)
  br label %35

35:                                               ; preds = %31, %24, %21, %5
  %36 = load ptr, ptr %8, align 8, !tbaa !3
  %37 = getelementptr inbounds nuw %struct.pmix_buffer_t, ptr %36, i32 0, i32 3
  %38 = load ptr, ptr %37, align 8, !tbaa !91
  %39 = load ptr, ptr %8, align 8, !tbaa !3
  %40 = getelementptr inbounds nuw %struct.pmix_buffer_t, ptr %39, i32 0, i32 4
  %41 = load ptr, ptr %40, align 8, !tbaa !95
  %42 = icmp eq ptr %38, %41
  br i1 %42, label %43, label %44

43:                                               ; preds = %35
  store i32 -50, ptr %6, align 4
  store i32 1, ptr %18, align 4
  br label %168

44:                                               ; preds = %35
  br label %45

45:                                               ; preds = %44
  store i32 0, ptr %12, align 4, !tbaa !20
  %46 = load i16, ptr %11, align 2, !tbaa !31
  %47 = zext i16 %46 to i32
  switch i32 %47, label %52 [
    i32 8, label %48
    i32 13, label %48
    i32 6, label %49
    i32 9, label %49
    i32 11, label %49
    i32 14, label %49
    i32 10, label %50
    i32 15, label %50
    i32 4, label %51
  ]

48:                                               ; preds = %45, %45
  store i64 2, ptr %13, align 8, !tbaa !61
  br label %53

49:                                               ; preds = %45, %45, %45, %45
  store i64 4, ptr %13, align 8, !tbaa !61
  br label %53

50:                                               ; preds = %45, %45
  store i64 8, ptr %13, align 8, !tbaa !61
  br label %53

51:                                               ; preds = %45
  store i64 8, ptr %13, align 8, !tbaa !61
  br label %53

52:                                               ; preds = %45
  store i32 -27, ptr %12, align 4, !tbaa !20
  br label %53

53:                                               ; preds = %52, %51, %50, %49, %48
  br label %54

54:                                               ; preds = %53
  br label %55

55:                                               ; preds = %54
  %56 = load i32, ptr %12, align 4, !tbaa !20
  %57 = icmp ne i32 0, %56
  br i1 %57, label %58, label %69

58:                                               ; preds = %55
  br label %59

59:                                               ; preds = %58
  %60 = load i32, ptr %12, align 4, !tbaa !20
  %61 = icmp ne i32 -2, %60
  br i1 %61, label %62, label %65

62:                                               ; preds = %59
  %63 = load i32, ptr %12, align 4, !tbaa !20
  %64 = call ptr @PMIx_Error_string(i32 noundef %63)
  call void (i32, ptr, ...) @pmix_output(i32 noundef 0, ptr noundef @.str.58, ptr noundef %64, ptr noundef @.str.59, i32 noundef 486)
  br label %65

65:                                               ; preds = %62, %59
  br label %66

66:                                               ; preds = %65
  br label %67

67:                                               ; preds = %66
  %68 = load i32, ptr %12, align 4, !tbaa !20
  store i32 %68, ptr %6, align 4
  store i32 1, ptr %18, align 4
  br label %168

69:                                               ; preds = %55
  %70 = load ptr, ptr getelementptr inbounds nuw (%struct.pmix_psquash_base_module_t, ptr @pmix_psquash, i32 0, i32 4), align 8, !tbaa !89
  %71 = load i16, ptr %11, align 2, !tbaa !31
  %72 = call i32 %70(i16 noundef zeroext %71, ptr noundef %16)
  store i32 %72, ptr %12, align 4, !tbaa !20
  %73 = load i32, ptr %12, align 4, !tbaa !20
  %74 = icmp ne i32 0, %73
  br i1 %74, label %75, label %86

75:                                               ; preds = %69
  br label %76

76:                                               ; preds = %75
  %77 = load i32, ptr %12, align 4, !tbaa !20
  %78 = icmp ne i32 -2, %77
  br i1 %78, label %79, label %82

79:                                               ; preds = %76
  %80 = load i32, ptr %12, align 4, !tbaa !20
  %81 = call ptr @PMIx_Error_string(i32 noundef %80)
  call void (i32, ptr, ...) @pmix_output(i32 noundef 0, ptr noundef @.str.58, ptr noundef %81, ptr noundef @.str.59, i32 noundef 492)
  br label %82

82:                                               ; preds = %79, %76
  br label %83

83:                                               ; preds = %82
  br label %84

84:                                               ; preds = %83
  %85 = load i32, ptr %12, align 4, !tbaa !20
  store i32 %85, ptr %6, align 4
  store i32 1, ptr %18, align 4
  br label %168

86:                                               ; preds = %69
  store i32 0, ptr %17, align 4, !tbaa !20
  br label %87

87:                                               ; preds = %164, %86
  %88 = load i32, ptr %17, align 4, !tbaa !20
  %89 = load ptr, ptr %10, align 8, !tbaa !32
  %90 = load i32, ptr %89, align 4, !tbaa !20
  %91 = icmp slt i32 %88, %90
  br i1 %91, label %92, label %167

92:                                               ; preds = %87
  %93 = load ptr, ptr %8, align 8, !tbaa !3
  %94 = getelementptr inbounds nuw %struct.pmix_buffer_t, ptr %93, i32 0, i32 3
  %95 = load ptr, ptr %94, align 8, !tbaa !91
  %96 = load ptr, ptr %8, align 8, !tbaa !3
  %97 = getelementptr inbounds nuw %struct.pmix_buffer_t, ptr %96, i32 0, i32 4
  %98 = load ptr, ptr %97, align 8, !tbaa !95
  %99 = ptrtoint ptr %95 to i64
  %100 = ptrtoint ptr %98 to i64
  %101 = sub i64 %99, %100
  store i64 %101, ptr %14, align 8, !tbaa !61
  %102 = load ptr, ptr getelementptr inbounds nuw (%struct.pmix_psquash_base_module_t, ptr @pmix_psquash, i32 0, i32 6), align 8, !tbaa !96
  %103 = load i16, ptr %11, align 2, !tbaa !31
  %104 = load ptr, ptr %8, align 8, !tbaa !3
  %105 = getelementptr inbounds nuw %struct.pmix_buffer_t, ptr %104, i32 0, i32 4
  %106 = load ptr, ptr %105, align 8, !tbaa !95
  %107 = load i64, ptr %14, align 8, !tbaa !61
  %108 = load ptr, ptr %9, align 8, !tbaa !3
  %109 = load i32, ptr %17, align 4, !tbaa !20
  %110 = sext i32 %109 to i64
  %111 = load i64, ptr %13, align 8, !tbaa !61
  %112 = mul i64 %110, %111
  %113 = getelementptr inbounds nuw i8, ptr %108, i64 %112
  %114 = call i32 %102(i16 noundef zeroext %103, ptr noundef %106, i64 noundef %107, ptr noundef %113, ptr noundef %15)
  store i32 %114, ptr %12, align 4, !tbaa !20
  %115 = load i32, ptr %12, align 4, !tbaa !20
  %116 = icmp ne i32 0, %115
  br i1 %116, label %117, label %128

117:                                              ; preds = %92
  br label %118

118:                                              ; preds = %117
  %119 = load i32, ptr %12, align 4, !tbaa !20
  %120 = icmp ne i32 -2, %119
  br i1 %120, label %121, label %124

121:                                              ; preds = %118
  %122 = load i32, ptr %12, align 4, !tbaa !20
  %123 = call ptr @PMIx_Error_string(i32 noundef %122)
  call void (i32, ptr, ...) @pmix_output(i32 noundef 0, ptr noundef @.str.58, ptr noundef %123, ptr noundef @.str.59, i32 noundef 502)
  br label %124

124:                                              ; preds = %121, %118
  br label %125

125:                                              ; preds = %124
  br label %126

126:                                              ; preds = %125
  %127 = load i32, ptr %12, align 4, !tbaa !20
  store i32 %127, ptr %6, align 4
  store i32 1, ptr %18, align 4
  br label %168

128:                                              ; preds = %92
  %129 = load i64, ptr %15, align 8, !tbaa !61
  %130 = load i64, ptr %16, align 8, !tbaa !61
  %131 = icmp ugt i64 %129, %130
  br i1 %131, label %132, label %143

132:                                              ; preds = %128
  store i32 -20, ptr %12, align 4, !tbaa !20
  br label %133

133:                                              ; preds = %132
  %134 = load i32, ptr %12, align 4, !tbaa !20
  %135 = icmp ne i32 -2, %134
  br i1 %135, label %136, label %139

136:                                              ; preds = %133
  %137 = load i32, ptr %12, align 4, !tbaa !20
  %138 = call ptr @PMIx_Error_string(i32 noundef %137)
  call void (i32, ptr, ...) @pmix_output(i32 noundef 0, ptr noundef @.str.58, ptr noundef %138, ptr noundef @.str.59, i32 noundef 508)
  br label %139

139:                                              ; preds = %136, %133
  br label %140

140:                                              ; preds = %139
  br label %141

141:                                              ; preds = %140
  %142 = load i32, ptr %12, align 4, !tbaa !20
  store i32 %142, ptr %6, align 4
  store i32 1, ptr %18, align 4
  br label %168

143:                                              ; preds = %128
  %144 = load i64, ptr %15, align 8, !tbaa !61
  %145 = load i64, ptr %14, align 8, !tbaa !61
  %146 = icmp ugt i64 %144, %145
  br i1 %146, label %147, label %158

147:                                              ; preds = %143
  store i32 -63, ptr %12, align 4, !tbaa !20
  br label %148

148:                                              ; preds = %147
  %149 = load i32, ptr %12, align 4, !tbaa !20
  %150 = icmp ne i32 -2, %149
  br i1 %150, label %151, label %154

151:                                              ; preds = %148
  %152 = load i32, ptr %12, align 4, !tbaa !20
  %153 = call ptr @PMIx_Error_string(i32 noundef %152)
  call void (i32, ptr, ...) @pmix_output(i32 noundef 0, ptr noundef @.str.58, ptr noundef %153, ptr noundef @.str.59, i32 noundef 513)
  br label %154

154:                                              ; preds = %151, %148
  br label %155

155:                                              ; preds = %154
  br label %156

156:                                              ; preds = %155
  %157 = load i32, ptr %12, align 4, !tbaa !20
  store i32 %157, ptr %6, align 4
  store i32 1, ptr %18, align 4
  br label %168

158:                                              ; preds = %143
  %159 = load i64, ptr %15, align 8, !tbaa !61
  %160 = load ptr, ptr %8, align 8, !tbaa !3
  %161 = getelementptr inbounds nuw %struct.pmix_buffer_t, ptr %160, i32 0, i32 4
  %162 = load ptr, ptr %161, align 8, !tbaa !95
  %163 = getelementptr inbounds nuw i8, ptr %162, i64 %159
  store ptr %163, ptr %161, align 8, !tbaa !95
  br label %164

164:                                              ; preds = %158
  %165 = load i32, ptr %17, align 4, !tbaa !20
  %166 = add nsw i32 %165, 1
  store i32 %166, ptr %17, align 4, !tbaa !20
  br label %87, !llvm.loop !97

167:                                              ; preds = %87
  store i32 0, ptr %6, align 4
  store i32 1, ptr %18, align 4
  br label %168

168:                                              ; preds = %167, %156, %141, %126, %84, %67, %43
  call void @llvm.lifetime.end.p0(i64 4, ptr %17) #12
  call void @llvm.lifetime.end.p0(i64 8, ptr %16) #12
  call void @llvm.lifetime.end.p0(i64 8, ptr %15) #12
  call void @llvm.lifetime.end.p0(i64 8, ptr %14) #12
  call void @llvm.lifetime.end.p0(i64 8, ptr %13) #12
  call void @llvm.lifetime.end.p0(i64 4, ptr %12) #12
  %169 = load i32, ptr %6, align 4
  ret i32 %169
}