; Function Attrs: nounwind uwtable
define internal noundef i32 @pmix4_bfrops_base_unpack_general_int(ptr readnone captures(none) %0, ptr noundef captures(none) %1, ptr noundef %2, ptr noundef readonly captures(none) %3, i16 noundef zeroext %4) #0 {
  %6 = alloca i64, align 8
  %7 = alloca i64, align 8
  call void @llvm.lifetime.start.p0(i64 8, ptr nonnull %6) #14
  call void @llvm.lifetime.start.p0(i64 8, ptr nonnull %7) #14
  %8 = load i32, ptr getelementptr inbounds nuw (i8, ptr @pmix_bfrops_base_framework, i64 76), align 4, !tbaa !63
  %or.cond = icmp ult i32 %8, 64
  br i1 %or.cond, label %9, label %16

9:                                                ; preds = %5
  %10 = zext nneg i32 %8 to i64
  %11 = getelementptr inbounds nuw [0 x %struct.pmix_output_desc_t], ptr @pmix_output_info, i64 0, i64 %10, i32 2
  %12 = load i32, ptr %11, align 4, !tbaa !69
  %13 = icmp sgt i32 %12, 19
  br i1 %13, label %14, label %16

14:                                               ; preds = %9
  %15 = load i32, ptr %3, align 4, !tbaa !12
  tail call void (i32, ptr, ...) @pmix_output(i32 noundef %8, ptr noundef nonnull @.str.61, i32 noundef %15) #14
  br label %16

16:                                               ; preds = %14, %9, %5
  %17 = getelementptr inbounds nuw i8, ptr %1, i64 136
  %18 = load ptr, ptr %17, align 8, !tbaa !73
  %19 = getelementptr inbounds nuw i8, ptr %1, i64 144
  %20 = load ptr, ptr %19, align 8, !tbaa !77
  %21 = icmp eq ptr %18, %20
  br i1 %21, label %.loopexit, label %22

22:                                               ; preds = %16
  %switch.tableidx = add i16 %4, -4
  %23 = icmp ult i16 %switch.tableidx, 12
  br i1 %23, label %switch.hole_check, label %24

24:                                               ; preds = %switch.hole_check, %22
  %25 = tail call ptr @PMIx_Error_string(i32 noundef -27) #14
  tail call void (i32, ptr, ...) @pmix_output(i32 noundef 0, ptr noundef nonnull @.str.58, ptr noundef %25, ptr noundef nonnull @.str.59, i32 noundef 486) #14
  br label %.loopexit

switch.hole_check:                                ; preds = %22
  %switch.shifted = lshr i16 3829, %switch.tableidx
  %switch.lobit = trunc i16 %switch.shifted to i1
  br i1 %switch.lobit, label %switch.lookup, label %24

switch.lookup:                                    ; preds = %switch.hole_check
  %26 = zext nneg i16 %switch.tableidx to i64
  %switch.gep = getelementptr inbounds nuw [12 x i64], ptr @switch.table.pmix4_bfrops_base_unpack_general_int, i64 0, i64 %26
  %switch.load = load i64, ptr %switch.gep, align 8
  %27 = load ptr, ptr getelementptr inbounds nuw (i8, ptr @pmix_psquash, i64 32), align 8, !tbaa !71
  %28 = call i32 %27(i16 noundef zeroext %4, ptr noundef nonnull %7) #14
  switch i32 %28, label %31 [
    i32 0, label %.preheader
    i32 -2, label %.loopexit
  ]

.preheader:                                       ; preds = %switch.lookup
  %29 = load i32, ptr %3, align 4, !tbaa !12
  %30 = icmp sgt i32 %29, 0
  br i1 %30, label %.lr.ph.preheader, label %.loopexit

.lr.ph.preheader:                                 ; preds = %.preheader
  %.pre = load ptr, ptr %19, align 8, !tbaa !77
  br label %.lr.ph

31:                                               ; preds = %switch.lookup
  %32 = call ptr @PMIx_Error_string(i32 noundef %28) #14
  call void (i32, ptr, ...) @pmix_output(i32 noundef 0, ptr noundef nonnull @.str.58, ptr noundef %32, ptr noundef nonnull @.str.59, i32 noundef 492) #14
  br label %.loopexit

.lr.ph:                                           ; preds = %.lr.ph.preheader, %54
  %33 = phi ptr [ %.pre, %.lr.ph.preheader ], [ %56, %54 ]
  %indvars.iv = phi i64 [ 0, %.lr.ph.preheader ], [ %indvars.iv.next, %54 ]
  %34 = load ptr, ptr %17, align 8, !tbaa !73
  %35 = ptrtoint ptr %34 to i64
  %36 = ptrtoint ptr %33 to i64
  %37 = sub i64 %35, %36
  %38 = load ptr, ptr getelementptr inbounds nuw (i8, ptr @pmix_psquash, i64 48), align 8, !tbaa !78
  %39 = mul nuw nsw i64 %switch.load, %indvars.iv
  %40 = getelementptr inbounds nuw i8, ptr %2, i64 %39
  %41 = call i32 %38(i16 noundef zeroext %4, ptr noundef %33, i64 noundef %37, ptr noundef %40, ptr noundef nonnull %6) #14
  switch i32 %41, label %42 [
    i32 0, label %44
    i32 -2, label %.loopexit
  ]

42:                                               ; preds = %.lr.ph
  %43 = call ptr @PMIx_Error_string(i32 noundef %41) #14
  call void (i32, ptr, ...) @pmix_output(i32 noundef 0, ptr noundef nonnull @.str.58, ptr noundef %43, ptr noundef nonnull @.str.59, i32 noundef 502) #14
  br label %.loopexit

44:                                               ; preds = %.lr.ph
  %45 = load i64, ptr %6, align 8, !tbaa !49
  %46 = load i64, ptr %7, align 8, !tbaa !49
  %47 = icmp ugt i64 %45, %46
  br i1 %47, label %48, label %50

48:                                               ; preds = %44
  %49 = call ptr @PMIx_Error_string(i32 noundef -20) #14
  call void (i32, ptr, ...) @pmix_output(i32 noundef 0, ptr noundef nonnull @.str.58, ptr noundef %49, ptr noundef nonnull @.str.59, i32 noundef 508) #14
  br label %.loopexit

50:                                               ; preds = %44
  %51 = icmp ugt i64 %45, %37
  br i1 %51, label %52, label %54

52:                                               ; preds = %50
  %53 = call ptr @PMIx_Error_string(i32 noundef -63) #14
  call void (i32, ptr, ...) @pmix_output(i32 noundef 0, ptr noundef nonnull @.str.58, ptr noundef %53, ptr noundef nonnull @.str.59, i32 noundef 513) #14
  br label %.loopexit

54:                                               ; preds = %50
  %55 = load ptr, ptr %19, align 8, !tbaa !77
  %56 = getelementptr inbounds nuw i8, ptr %55, i64 %45
  store ptr %56, ptr %19, align 8, !tbaa !77
  %indvars.iv.next = add nuw nsw i64 %indvars.iv, 1
  %57 = load i32, ptr %3, align 4, !tbaa !12
  %58 = sext i32 %57 to i64
  %59 = icmp slt i64 %indvars.iv.next, %58
  br i1 %59, label %.lr.ph, label %.loopexit, !llvm.loop !79

.loopexit:                                        ; preds = %.lr.ph, %54, %.preheader, %42, %31, %switch.lookup, %16, %52, %48, %24
  %.037 = phi i32 [ -27, %24 ], [ -20, %48 ], [ -63, %52 ], [ -50, %16 ], [ %28, %switch.lookup ], [ %28, %31 ], [ %41, %42 ], [ 0, %.preheader ], [ %41, %54 ], [ %41, %.lr.ph ]
  call void @llvm.lifetime.end.p0(i64 8, ptr nonnull %7) #14
  call void @llvm.lifetime.end.p0(i64 8, ptr nonnull %6) #14
  ret i32 %.037
}